ARM GAS  /var/folders/9x/7nl7qcbn3r12rp7phz107hx40000gp/T//ccNHqO4L.s 			page 1


   1              		.cpu cortex-m3
   2              		.arch armv7-m
   3              		.fpu softvfp
   4              		.eabi_attribute 20, 1
   5              		.eabi_attribute 21, 1
   6              		.eabi_attribute 23, 3
   7              		.eabi_attribute 24, 1
   8              		.eabi_attribute 25, 1
   9              		.eabi_attribute 26, 1
  10              		.eabi_attribute 30, 1
  11              		.eabi_attribute 34, 1
  12              		.eabi_attribute 18, 4
  13              		.file	"decoder.c"
  14              		.text
  15              	.Ltext0:
  16              		.cfi_sections	.debug_frame
  17              		.section	.text.decoder_init,"ax",%progbits
  18              		.align	1
  19              		.global	decoder_init
  20              		.syntax unified
  21              		.thumb
  22              		.thumb_func
  24              	decoder_init:
  25              	.LFB29:
  26              		.file 1 "decoder.c"
   1:decoder.c     **** #include "decoder.h"
   2:decoder.c     **** #include "stm32f10x.h"
   3:decoder.c     **** 
   4:decoder.c     **** // init decoder peripherals
   5:decoder.c     **** 
   6:decoder.c     **** void decoder_init(void) {
  27              		.loc 1 6 25 view -0
  28              		.cfi_startproc
  29              		@ args = 0, pretend = 0, frame = 0
  30              		@ frame_needed = 0, uses_anonymous_args = 0
  31              		@ link register save eliminated.
   7:decoder.c     ****     RCC->APB2ENR |= RCC_APB2ENR_IOPBEN;
  32              		.loc 1 7 5 view .LVU1
  33              		.loc 1 7 18 is_stmt 0 view .LVU2
  34 0000 134A     		ldr	r2, .L2
  35 0002 9369     		ldr	r3, [r2, #24]
  36 0004 43F00803 		orr	r3, r3, #8
  37 0008 9361     		str	r3, [r2, #24]
   8:decoder.c     ****     // PA4 - push-pull
   9:decoder.c     ****     GPIOB->CRL &= ~GPIO_CRL_CNF0;
  38              		.loc 1 9 5 is_stmt 1 view .LVU3
  39              		.loc 1 9 16 is_stmt 0 view .LVU4
  40 000a 124B     		ldr	r3, .L2+4
  41 000c 1A68     		ldr	r2, [r3]
  42 000e 22F00C02 		bic	r2, r2, #12
  43 0012 1A60     		str	r2, [r3]
  10:decoder.c     ****     GPIOB->CRL |= GPIO_CRL_MODE0;
  44              		.loc 1 10 5 is_stmt 1 view .LVU5
  45              		.loc 1 10 16 is_stmt 0 view .LVU6
  46 0014 1A68     		ldr	r2, [r3]
  47 0016 42F00302 		orr	r2, r2, #3
  48 001a 1A60     		str	r2, [r3]
ARM GAS  /var/folders/9x/7nl7qcbn3r12rp7phz107hx40000gp/T//ccNHqO4L.s 			page 2


  11:decoder.c     ****     // PA5 - push-pull
  12:decoder.c     ****     GPIOB->CRL &= ~GPIO_CRL_CNF1;
  49              		.loc 1 12 5 is_stmt 1 view .LVU7
  50              		.loc 1 12 16 is_stmt 0 view .LVU8
  51 001c 1A68     		ldr	r2, [r3]
  52 001e 22F0C002 		bic	r2, r2, #192
  53 0022 1A60     		str	r2, [r3]
  13:decoder.c     ****     GPIOB->CRL |= GPIO_CRL_MODE1;
  54              		.loc 1 13 5 is_stmt 1 view .LVU9
  55              		.loc 1 13 16 is_stmt 0 view .LVU10
  56 0024 1A68     		ldr	r2, [r3]
  57 0026 42F03002 		orr	r2, r2, #48
  58 002a 1A60     		str	r2, [r3]
  14:decoder.c     ****     // PA6 - push-pull
  15:decoder.c     ****     GPIOB->CRH &= ~GPIO_CRH_CNF10;
  59              		.loc 1 15 5 is_stmt 1 view .LVU11
  60              		.loc 1 15 16 is_stmt 0 view .LVU12
  61 002c 5A68     		ldr	r2, [r3, #4]
  62 002e 22F44062 		bic	r2, r2, #3072
  63 0032 5A60     		str	r2, [r3, #4]
  16:decoder.c     ****     GPIOB->CRH |= GPIO_CRH_MODE10;
  64              		.loc 1 16 5 is_stmt 1 view .LVU13
  65              		.loc 1 16 16 is_stmt 0 view .LVU14
  66 0034 5A68     		ldr	r2, [r3, #4]
  67 0036 42F44072 		orr	r2, r2, #768
  68 003a 5A60     		str	r2, [r3, #4]
  17:decoder.c     ****     // PA7 - push-pull
  18:decoder.c     ****     GPIOB->CRH &= ~GPIO_CRH_CNF11;
  69              		.loc 1 18 5 is_stmt 1 view .LVU15
  70              		.loc 1 18 16 is_stmt 0 view .LVU16
  71 003c 5A68     		ldr	r2, [r3, #4]
  72 003e 22F44042 		bic	r2, r2, #49152
  73 0042 5A60     		str	r2, [r3, #4]
  19:decoder.c     ****     GPIOB->CRH |= GPIO_CRH_MODE11;
  74              		.loc 1 19 5 is_stmt 1 view .LVU17
  75              		.loc 1 19 16 is_stmt 0 view .LVU18
  76 0044 5A68     		ldr	r2, [r3, #4]
  77 0046 42F44052 		orr	r2, r2, #12288
  78 004a 5A60     		str	r2, [r3, #4]
  20:decoder.c     **** }
  79              		.loc 1 20 1 view .LVU19
  80 004c 7047     		bx	lr
  81              	.L3:
  82 004e 00BF     		.align	2
  83              	.L2:
  84 0050 00100240 		.word	1073876992
  85 0054 000C0140 		.word	1073810432
  86              		.cfi_endproc
  87              	.LFE29:
  89              		.section	.text.decoder_set_digit,"ax",%progbits
  90              		.align	1
  91              		.global	decoder_set_digit
  92              		.syntax unified
  93              		.thumb
  94              		.thumb_func
  96              	decoder_set_digit:
  97              	.LVL0:
ARM GAS  /var/folders/9x/7nl7qcbn3r12rp7phz107hx40000gp/T//ccNHqO4L.s 			page 3


  98              	.LFB30:
  21:decoder.c     **** 
  22:decoder.c     **** // set digit
  23:decoder.c     **** 
  24:decoder.c     **** void decoder_set_digit(uint8_t d) {
  99              		.loc 1 24 35 is_stmt 1 view -0
 100              		.cfi_startproc
 101              		@ args = 0, pretend = 0, frame = 0
 102              		@ frame_needed = 0, uses_anonymous_args = 0
 103              		@ link register save eliminated.
  25:decoder.c     ****     // set pinns to state equivalent to binary format of digit
  26:decoder.c     ****     // (check K155ID1 datasheet for more information) 
  27:decoder.c     ****     GPIOB->BSRR = ((d&0x01) == 0)? GPIO_BSRR_BR0 : GPIO_BSRR_BS0;
 104              		.loc 1 27 5 view .LVU21
 105              		.loc 1 27 50 is_stmt 0 view .LVU22
 106 0000 10F0010F 		tst	r0, #1
 107 0004 19D1     		bne	.L9
 108 0006 4FF48032 		mov	r2, #65536
 109              	.L5:
 110              		.loc 1 27 17 discriminator 4 view .LVU23
 111 000a 114B     		ldr	r3, .L13
 112 000c 1A61     		str	r2, [r3, #16]
  28:decoder.c     ****     GPIOB->BSRR = (((d>>1)&0x01) == 0)? GPIO_BSRR_BR1 : GPIO_BSRR_BS1;
 113              		.loc 1 28 5 is_stmt 1 discriminator 4 view .LVU24
 114              		.loc 1 28 55 is_stmt 0 discriminator 4 view .LVU25
 115 000e 10F0020F 		tst	r0, #2
 116 0012 14D1     		bne	.L10
 117              		.loc 1 28 55 view .LVU26
 118 0014 4FF40032 		mov	r2, #131072
 119              	.L6:
 120              		.loc 1 28 17 discriminator 4 view .LVU27
 121 0018 0D4B     		ldr	r3, .L13
 122 001a 1A61     		str	r2, [r3, #16]
  29:decoder.c     ****     GPIOB->BSRR = (((d>>2)&0x01) == 0)? GPIO_BSRR_BR10 : GPIO_BSRR_BS10;
 123              		.loc 1 29 5 is_stmt 1 discriminator 4 view .LVU28
 124              		.loc 1 29 56 is_stmt 0 discriminator 4 view .LVU29
 125 001c 10F0040F 		tst	r0, #4
 126 0020 0FD1     		bne	.L11
 127              		.loc 1 29 56 view .LVU30
 128 0022 4FF08062 		mov	r2, #67108864
 129              	.L7:
 130              		.loc 1 29 17 discriminator 4 view .LVU31
 131 0026 0A4B     		ldr	r3, .L13
 132 0028 1A61     		str	r2, [r3, #16]
  30:decoder.c     ****     GPIOB->BSRR = (((d>>3)&0x01) == 0)? GPIO_BSRR_BR11 : GPIO_BSRR_BS11;
 133              		.loc 1 30 5 is_stmt 1 discriminator 4 view .LVU32
 134              		.loc 1 30 56 is_stmt 0 discriminator 4 view .LVU33
 135 002a 10F0080F 		tst	r0, #8
 136 002e 0BD1     		bne	.L12
 137              		.loc 1 30 56 view .LVU34
 138 0030 4FF00062 		mov	r2, #134217728
 139              	.L8:
 140              		.loc 1 30 17 discriminator 4 view .LVU35
 141 0034 064B     		ldr	r3, .L13
 142 0036 1A61     		str	r2, [r3, #16]
  31:decoder.c     **** }...
 143              		.loc 1 31 1 discriminator 4 view .LVU36
ARM GAS  /var/folders/9x/7nl7qcbn3r12rp7phz107hx40000gp/T//ccNHqO4L.s 			page 4


 144 0038 7047     		bx	lr
 145              	.L9:
  27:decoder.c     ****     GPIOB->BSRR = ((d&0x01) == 0)? GPIO_BSRR_BR0 : GPIO_BSRR_BS0;
 146              		.loc 1 27 50 view .LVU37
 147 003a 0122     		movs	r2, #1
 148 003c E5E7     		b	.L5
 149              	.L10:
  28:decoder.c     ****     GPIOB->BSRR = (((d>>1)&0x01) == 0)? GPIO_BSRR_BR1 : GPIO_BSRR_BS1;
 150              		.loc 1 28 55 view .LVU38
 151 003e 0222     		movs	r2, #2
 152 0040 EAE7     		b	.L6
 153              	.L11:
  29:decoder.c     ****     GPIOB->BSRR = (((d>>2)&0x01) == 0)? GPIO_BSRR_BR10 : GPIO_BSRR_BS10;
 154              		.loc 1 29 56 view .LVU39
 155 0042 4FF48062 		mov	r2, #1024
 156 0046 EEE7     		b	.L7
 157              	.L12:
  30:decoder.c     ****     GPIOB->BSRR = (((d>>3)&0x01) == 0)? GPIO_BSRR_BR11 : GPIO_BSRR_BS11;
 158              		.loc 1 30 56 view .LVU40
 159 0048 4FF40062 		mov	r2, #2048
 160 004c F2E7     		b	.L8
 161              	.L14:
 162 004e 00BF     		.align	2
 163              	.L13:
 164 0050 000C0140 		.word	1073810432
 165              		.cfi_endproc
 166              	.LFE30:
 168              		.text
 169              	.Letext0:
 170              		.file 2 "/usr/local/gcc-arm/gcc-arm-none-eabi-10.3-2021.10/arm-none-eabi/include/machine/_default_
 171              		.file 3 "/usr/local/gcc-arm/gcc-arm-none-eabi-10.3-2021.10/arm-none-eabi/include/sys/_stdint.h"
 172              		.file 4 "CMSIS/Inc/stm32f10x.h"
ARM GAS  /var/folders/9x/7nl7qcbn3r12rp7phz107hx40000gp/T//ccNHqO4L.s 			page 5


DEFINED SYMBOLS
                            *ABS*:0000000000000000 decoder.c
/var/folders/9x/7nl7qcbn3r12rp7phz107hx40000gp/T//ccNHqO4L.s:18     .text.decoder_init:0000000000000000 $t
/var/folders/9x/7nl7qcbn3r12rp7phz107hx40000gp/T//ccNHqO4L.s:24     .text.decoder_init:0000000000000000 decoder_init
/var/folders/9x/7nl7qcbn3r12rp7phz107hx40000gp/T//ccNHqO4L.s:84     .text.decoder_init:0000000000000050 $d
/var/folders/9x/7nl7qcbn3r12rp7phz107hx40000gp/T//ccNHqO4L.s:90     .text.decoder_set_digit:0000000000000000 $t
/var/folders/9x/7nl7qcbn3r12rp7phz107hx40000gp/T//ccNHqO4L.s:96     .text.decoder_set_digit:0000000000000000 decoder_set_digit
/var/folders/9x/7nl7qcbn3r12rp7phz107hx40000gp/T//ccNHqO4L.s:164    .text.decoder_set_digit:0000000000000050 $d

NO UNDEFINED SYMBOLS
